; ModuleID = '40/2861.c'
source_filename = "40/2861.c"
target datalayout = "e-m:e-p270:32:32-p271:32:32-p272:64:64-i64:64-f80:128-n8:16:32:64-S128"
target triple = "x86_64-pc-linux-gnu"

@.str = private unnamed_addr constant [4 x i8] c"%lf\00", align 1
@.str.1 = private unnamed_addr constant [6 x i8] c"%.4lf\00", align 1
@.str.2 = private unnamed_addr constant [14 x i8] c"Invalid input\00", align 1

; Function Attrs: noinline nounwind uwtable
define dso_local i32 @main() #0 {
  %1 = alloca i32, align 4
  %2 = alloca [4 x double], align 16
  %3 = alloca double, align 8
  %4 = alloca double, align 8
  %5 = alloca double, align 8
  %6 = alloca i32, align 4
  store i32 0, i32* %1, align 4
  store i32 0, i32* %6, align 4
  br label %7

7:                                                ; preds = %15, %0
  %8 = load i32, i32* %6, align 4
  %9 = icmp slt i32 %8, 4
  br i1 %9, label %10, label %18

10:                                               ; preds = %7
  %11 = load i32, i32* %6, align 4
  %12 = sext i32 %11 to i64
  %13 = getelementptr inbounds [4 x double], [4 x double]* %2, i64 0, i64 %12
  %14 = call i32 (i8*, ...) @__isoc99_scanf(i8* getelementptr inbounds ([4 x i8], [4 x i8]* @.str, i64 0, i64 0), double* %13)
  br label %15

15:                                               ; preds = %10
  %16 = load i32, i32* %6, align 4
  %17 = add nsw i32 %16, 1
  store i32 %17, i32* %6, align 4
  br label %7

18:                                               ; preds = %7
  %19 = call i32 (i8*, ...) @__isoc99_scanf(i8* getelementptr inbounds ([4 x i8], [4 x i8]* @.str, i64 0, i64 0), double* %3)
  %20 = load double, double* %3, align 8
  %21 = fdiv double %20, 3.600000e+02
  %22 = fmul double %21, 1.000000e+02
  store double %22, double* %4, align 8
  %23 = getelementptr inbounds [4 x double], [4 x double]* %2, i64 0, i64 1
  %24 = load double, double* %23, align 8
  %25 = getelementptr inbounds [4 x double], [4 x double]* %2, i64 0, i64 2
  %26 = load double, double* %25, align 16
  %27 = getelementptr inbounds [4 x double], [4 x double]* %2, i64 0, i64 3
  %28 = load double, double* %27, align 8
  %29 = getelementptr inbounds [4 x double], [4 x double]* %2, i64 0, i64 0
  %30 = load double, double* %29, align 16
  %31 = load double, double* %4, align 8
  %32 = call double @S(double %24, double %26, double %28, double %30, double %31)
  store double %32, double* %5, align 8
  %33 = load double, double* %5, align 8
  %34 = fcmp ogt double %33, 0.000000e+00
  br i1 %34, label %35, label %38

35:                                               ; preds = %18
  %36 = load double, double* %5, align 8
  %37 = call i32 (i8*, ...) @printf(i8* getelementptr inbounds ([6 x i8], [6 x i8]* @.str.1, i64 0, i64 0), double %36)
  br label %40

38:                                               ; preds = %18
  %39 = call i32 (i8*, ...) @printf(i8* getelementptr inbounds ([14 x i8], [14 x i8]* @.str.2, i64 0, i64 0))
  br label %40

40:                                               ; preds = %38, %35
  ret i32 0
}

declare dso_local i32 @__isoc99_scanf(i8*, ...) #1

; Function Attrs: noinline nounwind uwtable
define dso_local double @S(double %0, double %1, double %2, double %3, double %4) #0 {
  %6 = alloca double, align 8
  %7 = alloca double, align 8
  %8 = alloca double, align 8
  %9 = alloca double, align 8
  %10 = alloca double, align 8
  %11 = alloca double, align 8
  %12 = alloca double, align 8
  %13 = alloca double, align 8
  store double %0, double* %6, align 8
  store double %1, double* %7, align 8
  store double %2, double* %8, align 8
  store double %3, double* %9, align 8
  store double %4, double* %10, align 8
  %14 = load double, double* %6, align 8
  %15 = load double, double* %7, align 8
  %16 = fadd double %14, %15
  %17 = load double, double* %8, align 8
  %18 = fadd double %16, %17
  %19 = load double, double* %9, align 8
  %20 = fadd double %18, %19
  %21 = fdiv double %20, 2.000000e+00
  store double %21, double* %12, align 8
  %22 = load double, double* %12, align 8
  %23 = load double, double* %6, align 8
  %24 = fsub double %22, %23
  %25 = load double, double* %12, align 8
  %26 = load double, double* %7, align 8
  %27 = fsub double %25, %26
  %28 = fmul double %24, %27
  %29 = load double, double* %12, align 8
  %30 = load double, double* %8, align 8
  %31 = fsub double %29, %30
  %32 = fmul double %28, %31
  %33 = load double, double* %12, align 8
  %34 = load double, double* %9, align 8
  %35 = fsub double %33, %34
  %36 = fmul double %32, %35
  %37 = load double, double* %6, align 8
  %38 = load double, double* %7, align 8
  %39 = fmul double %37, %38
  %40 = load double, double* %8, align 8
  %41 = fmul double %39, %40
  %42 = load double, double* %9, align 8
  %43 = fmul double %41, %42
  %44 = load double, double* %10, align 8
  %45 = call double @cos(double %44) #3
  %46 = call double @pow(double %45, double 2.000000e+00) #3
  %47 = fmul double %43, %46
  %48 = fsub double %36, %47
  store double %48, double* %13, align 8
  %49 = load double, double* %13, align 8
  %50 = call double @sqrt(double %49) #3
  store double %50, double* %11, align 8
  %51 = load double, double* %11, align 8
  ret double %51
}

declare dso_local i32 @printf(i8*, ...) #1

; Function Attrs: nounwind
declare dso_local double @pow(double, double) #2

; Function Attrs: nounwind
declare dso_local double @cos(double) #2

; Function Attrs: nounwind
declare dso_local double @sqrt(double) #2


!llvm.module.flags = !{!0}
!llvm.ident = !{!1}

!0 = !{i32 1, !"wchar_size", i32 4}
!1 = !{!"clang version 10.0.0-4ubuntu1 "}
